; Function Attrs: nounwind uwtable
define internal fastcc void @Io_ReadEqnStrCutAt(ptr noundef %0, ptr noundef readonly captures(none) %1, i32 noundef range(i32 0, 2) %2, ptr noundef captures(none) initializes((4, 8)) %3) unnamed_addr #0 {
  %5 = getelementptr inbounds nuw i8, ptr %3, i64 4
  store i32 0, ptr %5, align 4
  %6 = tail call ptr @strtok(ptr noundef %0, ptr noundef %1) #9
  %.not11 = icmp eq ptr %6, null
  br i1 %.not11, label %._crit_edge, label %.lr.ph

.lr.ph:                                           ; preds = %4
  %.not9 = icmp eq i32 %2, 0
  %7 = getelementptr i8, ptr %3, i64 8
  br i1 %.not9, label %Io_ReadEqnStrFind.exit.threadthread-pre-split.us, label %.lr.ph.split

Io_ReadEqnStrFind.exit.threadthread-pre-split.us: ; preds = %.lr.ph, %Vec_PtrPush.exit.us
  %.012.us = phi ptr [ %35, %Vec_PtrPush.exit.us ], [ %6, %.lr.ph ]
  %.pr.us = load i32, ptr %5, align 4
  %8 = load i32, ptr %3, align 8
  %9 = icmp eq i32 %.pr.us, %8
  br i1 %9, label %10, label %.Vec_PtrGrow.exit11_crit_edge.i.us

.Vec_PtrGrow.exit11_crit_edge.i.us:               ; preds = %Io_ReadEqnStrFind.exit.threadthread-pre-split.us
  %.pre.i.us = load ptr, ptr %7, align 8
  br label %Vec_PtrPush.exit.us

10:                                               ; preds = %Io_ReadEqnStrFind.exit.threadthread-pre-split.us
  %11 = icmp slt i32 %.pr.us, 16
  br i1 %11, label %23, label %12

12:                                               ; preds = %10
  %13 = shl nuw nsw i32 %.pr.us, 1
  %14 = load ptr, ptr %7, align 8
  %.not9.i10.i.us = icmp eq ptr %14, null
  %15 = zext nneg i32 %13 to i64
  %16 = shl nuw nsw i64 %15, 3
  br i1 %.not9.i10.i.us, label %19, label %17

17:                                               ; preds = %12
  %18 = tail call ptr @realloc(ptr noundef nonnull %14, i64 noundef %16) #12
  br label %21

19:                                               ; preds = %12
  %20 = tail call noalias ptr @malloc(i64 noundef %16) #10
  br label %21

21:                                               ; preds = %19, %17
  %22 = phi ptr [ %18, %17 ], [ %20, %19 ]
  store ptr %22, ptr %7, align 8
  store i32 %13, ptr %3, align 8
  br label %Vec_PtrPush.exit.us

23:                                               ; preds = %10
  %24 = load ptr, ptr %7, align 8
  %.not9.i.i.us = icmp eq ptr %24, null
  br i1 %.not9.i.i.us, label %27, label %25

25:                                               ; preds = %23
  %26 = tail call dereferenceable_or_null(128) ptr @realloc(ptr noundef nonnull %24, i64 noundef 128) #12
  br label %Vec_PtrGrow.exit.i.us

27:                                               ; preds = %23
  %28 = tail call noalias dereferenceable_or_null(128) ptr @malloc(i64 noundef 128) #10
  br label %Vec_PtrGrow.exit.i.us

Vec_PtrGrow.exit.i.us:                            ; preds = %27, %25
  %29 = phi ptr [ %26, %25 ], [ %28, %27 ]
  store ptr %29, ptr %7, align 8
  store i32 16, ptr %3, align 8
  br label %Vec_PtrPush.exit.us

Vec_PtrPush.exit.us:                              ; preds = %Vec_PtrGrow.exit.i.us, %21, %.Vec_PtrGrow.exit11_crit_edge.i.us
  %30 = phi ptr [ %.pre.i.us, %.Vec_PtrGrow.exit11_crit_edge.i.us ], [ %22, %21 ], [ %29, %Vec_PtrGrow.exit.i.us ]
  %31 = load i32, ptr %5, align 4
  %32 = add nsw i32 %31, 1
  store i32 %32, ptr %5, align 4
  %33 = sext i32 %31 to i64
  %34 = getelementptr inbounds ptr, ptr %30, i64 %33
  store ptr %.012.us, ptr %34, align 8
  %35 = tail call ptr @strtok(ptr noundef null, ptr noundef %1) #9
  %.not.us = icmp eq ptr %35, null
  br i1 %.not.us, label %._crit_edge, label %Io_ReadEqnStrFind.exit.threadthread-pre-split.us, !llvm.loop !9

.lr.ph.split:                                     ; preds = %.lr.ph, %Io_ReadEqnStrFind.exit
  %.012 = phi ptr [ %70, %Io_ReadEqnStrFind.exit ], [ %6, %.lr.ph ]
  %.val.i = load i32, ptr %5, align 4
  %36 = icmp sgt i32 %.val.i, 0
  br i1 %36, label %.lr.ph.i, label %Io_ReadEqnStrFind.exit.thread

.lr.ph.i:                                         ; preds = %.lr.ph.split
  %.val9.i = load ptr, ptr %7, align 8
  %wide.trip.count.i = zext nneg i32 %.val.i to i64
  br label %37

37:                                               ; preds = %42, %.lr.ph.i
  %indvars.iv.i = phi i64 [ 0, %.lr.ph.i ], [ %indvars.iv.next.i, %42 ]
  %38 = getelementptr inbounds nuw ptr, ptr %.val9.i, i64 %indvars.iv.i
  %39 = load ptr, ptr %38, align 8
  %40 = tail call i32 @strcmp(ptr noundef nonnull dereferenceable(1) %39, ptr noundef nonnull readonly dereferenceable(1) %.012) #11
  %41 = icmp eq i32 %40, 0
  br i1 %41, label %Io_ReadEqnStrFind.exit, label %42

42:                                               ; preds = %37
  %indvars.iv.next.i = add nuw nsw i64 %indvars.iv.i, 1
  %exitcond.not.i = icmp eq i64 %indvars.iv.next.i, %wide.trip.count.i
  br i1 %exitcond.not.i, label %Io_ReadEqnStrFind.exit.thread, label %37, !llvm.loop !10

Io_ReadEqnStrFind.exit.thread:                    ; preds = %42, %.lr.ph.split
  %43 = load i32, ptr %3, align 8
  %44 = icmp eq i32 %.val.i, %43
  br i1 %44, label %45, label %.Vec_PtrGrow.exit11_crit_edge.i

.Vec_PtrGrow.exit11_crit_edge.i:                  ; preds = %Io_ReadEqnStrFind.exit.thread
  %.pre.i = load ptr, ptr %7, align 8
  br label %Vec_PtrPush.exit

45:                                               ; preds = %Io_ReadEqnStrFind.exit.thread
  %46 = icmp slt i32 %.val.i, 16
  br i1 %46, label %47, label %54

47:                                               ; preds = %45
  %48 = load ptr, ptr %7, align 8
  %.not9.i.i = icmp eq ptr %48, null
  br i1 %.not9.i.i, label %51, label %49

49:                                               ; preds = %47
  %50 = tail call dereferenceable_or_null(128) ptr @realloc(ptr noundef nonnull %48, i64 noundef 128) #12
  br label %Vec_PtrGrow.exit.i

51:                                               ; preds = %47
  %52 = tail call noalias dereferenceable_or_null(128) ptr @malloc(i64 noundef 128) #10
  br label %Vec_PtrGrow.exit.i

Vec_PtrGrow.exit.i:                               ; preds = %51, %49
  %53 = phi ptr [ %50, %49 ], [ %52, %51 ]
  store ptr %53, ptr %7, align 8
  store i32 16, ptr %3, align 8
  br label %Vec_PtrPush.exit

54:                                               ; preds = %45
  %55 = shl nuw nsw i32 %.val.i, 1
  %56 = load ptr, ptr %7, align 8
  %.not9.i10.i = icmp eq ptr %56, null
  %57 = zext nneg i32 %55 to i64
  %58 = shl nuw nsw i64 %57, 3
  br i1 %.not9.i10.i, label %61, label %59

59:                                               ; preds = %54
  %60 = tail call ptr @realloc(ptr noundef nonnull %56, i64 noundef %58) #12
  br label %63

61:                                               ; preds = %54
  %62 = tail call noalias ptr @malloc(i64 noundef %58) #10
  br label %63

63:                                               ; preds = %61, %59
  %64 = phi ptr [ %60, %59 ], [ %62, %61 ]
  store ptr %64, ptr %7, align 8
  store i32 %55, ptr %3, align 8
  br label %Vec_PtrPush.exit

Vec_PtrPush.exit:                                 ; preds = %.Vec_PtrGrow.exit11_crit_edge.i, %Vec_PtrGrow.exit.i, %63
  %65 = phi ptr [ %.pre.i, %.Vec_PtrGrow.exit11_crit_edge.i ], [ %64, %63 ], [ %53, %Vec_PtrGrow.exit.i ]
  %66 = load i32, ptr %5, align 4
  %67 = add nsw i32 %66, 1
  store i32 %67, ptr %5, align 4
  %68 = sext i32 %66 to i64
  %69 = getelementptr inbounds ptr, ptr %65, i64 %68
  store ptr %.012, ptr %69, align 8
  br label %Io_ReadEqnStrFind.exit

Io_ReadEqnStrFind.exit:                           ; preds = %37, %Vec_PtrPush.exit
  %70 = tail call ptr @strtok(ptr noundef null, ptr noundef %1) #9
  %.not = icmp eq ptr %70, null
  br i1 %.not, label %._crit_edge, label %.lr.ph.split, !llvm.loop !9

._crit_edge:                                      ; preds = %Io_ReadEqnStrFind.exit, %Vec_PtrPush.exit.us, %4
  ret void
}